target datalayout = "e-m:e-p270:32:32-p271:32:32-p272:64:64-i64:64-i128:128-f80:128-n8:16:32:64-S128"
target triple = "x86_64-pc-linux-gnu"

%struct.H5FL_reg_head_t = type { i8, i32, i32, ptr, i64, ptr }
%struct.H5O_link_t = type { i32, i8, i64, i32, ptr, %union.anon }
%union.anon = type { %struct.H5O_link_ud_t }
%struct.H5O_link_ud_t = type { ptr, i64 }
%struct.H5O_link_soft_t = type { ptr }

@.str.1 = private unnamed_addr constant [101 x i8] c"generated/home/dtcxzyw/WorkSpace/Projects/compilers/llvm-opt-benchmark/bench/hdf5/hdf5/src/H5Olink.c\00", align 1
@H5_H5O_link_t_reg_free_list = internal global %struct.H5FL_reg_head_t { i8 0, i32 0, i32 0, ptr @.str.18, i64 48, ptr null }, align 8
@H5E_RESOURCE_g = external global i64, align 8
@H5E_NOSPACE_g = external global i64, align 8
@.str.9 = private unnamed_addr constant [25 x i8] c"memory allocation failed\00", align 1
@__func__.H5O__link_copy = private unnamed_addr constant [15 x i8] c"H5O__link_copy\00", align 1
@.str.19 = private unnamed_addr constant [26 x i8] c"can't duplicate link name\00", align 1
@.str.20 = private unnamed_addr constant [32 x i8] c"can't duplicate soft link value\00", align 1

; Function Attrs: nounwind uwtable
define internal ptr @H5O__link_copy(ptr noundef %0, ptr noundef %1) #0 {
  %3 = alloca ptr, align 8
  %4 = alloca ptr, align 8
  %5 = alloca ptr, align 8
  %6 = alloca ptr, align 8
  %7 = alloca ptr, align 8
  %8 = alloca i8, align 1
  store ptr %0, ptr %3, align 8
  store ptr %1, ptr %4, align 8
  %9 = load ptr, ptr %3, align 8
  store ptr %9, ptr %5, align 8
  %10 = load ptr, ptr %4, align 8
  store ptr %10, ptr %6, align 8
  store ptr null, ptr %7, align 8
  store i8 0, ptr %8, align 1
  %11 = load ptr, ptr %6, align 8
  %12 = icmp ne ptr %11, null
  br i1 %12, label %31, label %13

13:                                               ; preds = %2
  %14 = call noalias ptr @H5FL_reg_malloc(ptr noundef @H5_H5O_link_t_reg_free_list)
  store ptr %14, ptr %6, align 8
  %15 = icmp eq ptr null, %14
  br i1 %15, label %16, label %31

16:                                               ; preds = %13
  br label %17

17:                                               ; preds = %16
  br label %18

18:                                               ; preds = %17
  br label %19

19:                                               ; preds = %18
  %20 = load i64, ptr @H5E_RESOURCE_g, align 8
  %21 = load i64, ptr @H5E_NOSPACE_g, align 8
  %22 = call i32 (ptr, ptr, i32, i64, i64, ptr, ...) @H5E_printf_stack(ptr noundef @.str.1, ptr noundef @__func__.H5O__link_copy, i32 noundef 424, i64 noundef %20, i64 noundef %21, ptr noundef @.str.9)
  br label %23

23:                                               ; preds = %19
  store i8 1, ptr %8, align 1
  %24 = load i8, ptr %8, align 1
  %25 = trunc i8 %24 to i1
  %26 = zext i1 %25 to i8
  store i8 %26, ptr %8, align 1
  br label %27

27:                                               ; preds = %23
  br label %28

28:                                               ; preds = %27
  store ptr null, ptr %7, align 8
  br label %140

29:                                               ; No predecessors!
  br label %30

30:                                               ; preds = %29
  br label %31

31:                                               ; preds = %30, %13, %2
  %32 = load ptr, ptr %6, align 8
  %33 = load ptr, ptr %5, align 8
  call void @llvm.memcpy.p0.p0.i64(ptr align 8 %32, ptr align 8 %33, i64 48, i1 false)
  %34 = load ptr, ptr %5, align 8
  %35 = getelementptr inbounds %struct.H5O_link_t, ptr %34, i32 0, i32 4
  %36 = load ptr, ptr %35, align 8
  %37 = call noalias ptr @H5MM_xstrdup(ptr noundef %36)
  %38 = load ptr, ptr %6, align 8
  %39 = getelementptr inbounds %struct.H5O_link_t, ptr %38, i32 0, i32 4
  store ptr %37, ptr %39, align 8
  %40 = icmp eq ptr null, %37
  br i1 %40, label %41, label %56

41:                                               ; preds = %31
  br label %42

42:                                               ; preds = %41
  br label %43

43:                                               ; preds = %42
  br label %44

44:                                               ; preds = %43
  %45 = load i64, ptr @H5E_RESOURCE_g, align 8
  %46 = load i64, ptr @H5E_NOSPACE_g, align 8
  %47 = call i32 (ptr, ptr, i32, i64, i64, ptr, ...) @H5E_printf_stack(ptr noundef @.str.1, ptr noundef @__func__.H5O__link_copy, i32 noundef 432, i64 noundef %45, i64 noundef %46, ptr noundef @.str.19)
  br label %48

48:                                               ; preds = %44
  store i8 1, ptr %8, align 1
  %49 = load i8, ptr %8, align 1
  %50 = trunc i8 %49 to i1
  %51 = zext i1 %50 to i8
  store i8 %51, ptr %8, align 1
  br label %52

52:                                               ; preds = %48
  br label %53

53:                                               ; preds = %52
  store ptr null, ptr %7, align 8
  br label %140

54:                                               ; No predecessors!
  br label %55

55:                                               ; preds = %54
  br label %56

56:                                               ; preds = %55, %31
  %57 = load ptr, ptr %5, align 8
  %58 = getelementptr inbounds %struct.H5O_link_t, ptr %57, i32 0, i32 0
  %59 = load i32, ptr %58, align 8
  %60 = icmp eq i32 %59, 1
  br i1 %60, label %61, label %87

61:                                               ; preds = %56
  %62 = load ptr, ptr %5, align 8
  %63 = getelementptr inbounds %struct.H5O_link_t, ptr %62, i32 0, i32 5
  %64 = getelementptr inbounds %struct.H5O_link_soft_t, ptr %63, i32 0, i32 0
  %65 = load ptr, ptr %64, align 8
  %66 = call noalias ptr @H5MM_xstrdup(ptr noundef %65)
  %67 = load ptr, ptr %6, align 8
  %68 = getelementptr inbounds %struct.H5O_link_t, ptr %67, i32 0, i32 5
  %69 = getelementptr inbounds %struct.H5O_link_soft_t, ptr %68, i32 0, i32 0
  store ptr %66, ptr %69, align 8
  %70 = icmp eq ptr null, %66
  br i1 %70, label %71, label %86

71:                                               ; preds = %61
  br label %72

72:                                               ; preds = %71
  br label %73

73:                                               ; preds = %72
  br label %74

74:                                               ; preds = %73
  %75 = load i64, ptr @H5E_RESOURCE_g, align 8
  %76 = load i64, ptr @H5E_NOSPACE_g, align 8
  %77 = call i32 (ptr, ptr, i32, i64, i64, ptr, ...) @H5E_printf_stack(ptr noundef @.str.1, ptr noundef @__func__.H5O__link_copy, i32 noundef 437, i64 noundef %75, i64 noundef %76, ptr noundef @.str.20)
  br label %78

78:                                               ; preds = %74
  store i8 1, ptr %8, align 1
  %79 = load i8, ptr %8, align 1
  %80 = trunc i8 %79 to i1
  %81 = zext i1 %80 to i8
  store i8 %81, ptr %8, align 1
  br label %82

82:                                               ; preds = %78
  br label %83

83:                                               ; preds = %82
  store ptr null, ptr %7, align 8
  br label %140

84:                                               ; No predecessors!
  br label %85

85:                                               ; preds = %84
  br label %86

86:                                               ; preds = %85, %61
  br label %138

87:                                               ; preds = %56
  %88 = load ptr, ptr %5, align 8
  %89 = getelementptr inbounds %struct.H5O_link_t, ptr %88, i32 0, i32 0
  %90 = load i32, ptr %89, align 8
  %91 = icmp sge i32 %90, 64
  br i1 %91, label %92, label %137

92:                                               ; preds = %87
  %93 = load ptr, ptr %5, align 8
  %94 = getelementptr inbounds %struct.H5O_link_t, ptr %93, i32 0, i32 5
  %95 = getelementptr inbounds %struct.H5O_link_ud_t, ptr %94, i32 0, i32 1
  %96 = load i64, ptr %95, align 8
  %97 = icmp ugt i64 %96, 0
  br i1 %97, label %98, label %136

98:                                               ; preds = %92
  %99 = load ptr, ptr %5, align 8
  %100 = getelementptr inbounds %struct.H5O_link_t, ptr %99, i32 0, i32 5
  %101 = getelementptr inbounds %struct.H5O_link_ud_t, ptr %100, i32 0, i32 1
  %102 = load i64, ptr %101, align 8
  %103 = call noalias ptr @malloc(i64 noundef %102) #6
  %104 = load ptr, ptr %6, align 8
  %105 = getelementptr inbounds %struct.H5O_link_t, ptr %104, i32 0, i32 5
  %106 = getelementptr inbounds %struct.H5O_link_ud_t, ptr %105, i32 0, i32 0
  store ptr %103, ptr %106, align 8
  %107 = icmp eq ptr null, %103
  br i1 %107, label %108, label %123

108:                                              ; preds = %98
  br label %109

109:                                              ; preds = %108
  br label %110

110:                                              ; preds = %109
  br label %111

111:                                              ; preds = %110
  %112 = load i64, ptr @H5E_RESOURCE_g, align 8
  %113 = load i64, ptr @H5E_NOSPACE_g, align 8
  %114 = call i32 (ptr, ptr, i32, i64, i64, ptr, ...) @H5E_printf_stack(ptr noundef @.str.1, ptr noundef @__func__.H5O__link_copy, i32 noundef 442, i64 noundef %112, i64 noundef %113, ptr noundef @.str.9)
  br label %115

115:                                              ; preds = %111
  store i8 1, ptr %8, align 1
  %116 = load i8, ptr %8, align 1
  %117 = trunc i8 %116 to i1
  %118 = zext i1 %117 to i8
  store i8 %118, ptr %8, align 1
  br label %119

119:                                              ; preds = %115
  br label %120

120:                                              ; preds = %119
  store ptr null, ptr %7, align 8
  br label %140

121:                                              ; No predecessors!
  br label %122

122:                                              ; preds = %121
  br label %123

123:                                              ; preds = %122, %98
  %124 = load ptr, ptr %6, align 8
  %125 = getelementptr inbounds %struct.H5O_link_t, ptr %124, i32 0, i32 5
  %126 = getelementptr inbounds %struct.H5O_link_ud_t, ptr %125, i32 0, i32 0
  %127 = load ptr, ptr %126, align 8
  %128 = load ptr, ptr %5, align 8
  %129 = getelementptr inbounds %struct.H5O_link_t, ptr %128, i32 0, i32 5
  %130 = getelementptr inbounds %struct.H5O_link_ud_t, ptr %129, i32 0, i32 0
  %131 = load ptr, ptr %130, align 8
  %132 = load ptr, ptr %5, align 8
  %133 = getelementptr inbounds %struct.H5O_link_t, ptr %132, i32 0, i32 5
  %134 = getelementptr inbounds %struct.H5O_link_ud_t, ptr %133, i32 0, i32 1
  %135 = load i64, ptr %134, align 8
  call void @llvm.memcpy.p0.p0.i64(ptr align 1 %127, ptr align 1 %131, i64 %135, i1 false)
  br label %136

136:                                              ; preds = %123, %92
  br label %137

137:                                              ; preds = %136, %87
  br label %138

138:                                              ; preds = %137, %86
  %139 = load ptr, ptr %6, align 8
  store ptr %139, ptr %7, align 8
  br label %140

140:                                              ; preds = %138, %120, %83, %53, %28
  %141 = load ptr, ptr %7, align 8
  %142 = icmp eq ptr null, %141
  br i1 %142, label %143, label %174

143:                                              ; preds = %140
  %144 = load ptr, ptr %6, align 8
  %145 = icmp ne ptr %144, null
  br i1 %145, label %146, label %173

146:                                              ; preds = %143
  %147 = load ptr, ptr %6, align 8
  %148 = getelementptr inbounds %struct.H5O_link_t, ptr %147, i32 0, i32 4
  %149 = load ptr, ptr %148, align 8
  %150 = icmp ne ptr %149, null
  br i1 %150, label %151, label %166

151:                                              ; preds = %146
  %152 = load ptr, ptr %6, align 8
  %153 = getelementptr inbounds %struct.H5O_link_t, ptr %152, i32 0, i32 4
  %154 = load ptr, ptr %153, align 8
  %155 = load ptr, ptr %5, align 8
  %156 = getelementptr inbounds %struct.H5O_link_t, ptr %155, i32 0, i32 4
  %157 = load ptr, ptr %156, align 8
  %158 = icmp ne ptr %154, %157
  br i1 %158, label %159, label %166

159:                                              ; preds = %151
  %160 = load ptr, ptr %6, align 8
  %161 = getelementptr inbounds %struct.H5O_link_t, ptr %160, i32 0, i32 4
  %162 = load ptr, ptr %161, align 8
  %163 = call ptr @H5MM_xfree(ptr noundef %162)
  %164 = load ptr, ptr %6, align 8
  %165 = getelementptr inbounds %struct.H5O_link_t, ptr %164, i32 0, i32 4
  store ptr %163, ptr %165, align 8
  br label %166

166:                                              ; preds = %159, %151, %146
  %167 = load ptr, ptr %4, align 8
  %168 = icmp eq ptr null, %167
  br i1 %168, label %169, label %172

169:                                              ; preds = %166
  %170 = load ptr, ptr %6, align 8
  %171 = call ptr @H5FL_reg_free(ptr noundef @H5_H5O_link_t_reg_free_list, ptr noundef %170)
  store ptr %171, ptr %6, align 8
  br label %172

172:                                              ; preds = %169, %166
  br label %173

173:                                              ; preds = %172, %143
  br label %174

174:                                              ; preds = %173, %140
  %175 = load ptr, ptr %7, align 8
  ret ptr %175
}