; Function Attrs: nounwind uwtable
define internal noundef ptr @H5O__link_copy(ptr nocapture noundef readonly %0, ptr noundef %1) #0 {
  %.not = icmp eq ptr %1, null
  br i1 %.not, label %3, label %10

3:                                                ; preds = %2
  %4 = tail call noalias ptr @H5FL_reg_malloc(ptr noundef nonnull @H5_H5O_link_t_reg_free_list) #7
  %5 = icmp eq ptr %4, null
  br i1 %5, label %6, label %10

6:                                                ; preds = %3
  %7 = load i64, ptr @H5E_RESOURCE_g, align 8
  %8 = load i64, ptr @H5E_NOSPACE_g, align 8
  %9 = tail call i32 (ptr, ptr, i32, i64, i64, ptr, ...) @H5E_printf_stack(ptr noundef nonnull @.str.1, ptr noundef nonnull @__func__.H5O__link_copy, i32 noundef 424, i64 noundef %7, i64 noundef %8, ptr noundef nonnull @.str.9) #7
  br label %.thread

10:                                               ; preds = %3, %2
  %.032 = phi ptr [ %1, %2 ], [ %4, %3 ]
  tail call void @llvm.memcpy.p0.p0.i64(ptr noundef nonnull align 8 dereferenceable(48) %.032, ptr noundef nonnull align 8 dereferenceable(48) %0, i64 48, i1 false)
  %11 = getelementptr inbounds i8, ptr %0, i64 24
  %12 = load ptr, ptr %11, align 8
  %13 = tail call noalias ptr @H5MM_xstrdup(ptr noundef %12) #7
  %14 = getelementptr inbounds i8, ptr %.032, i64 24
  store ptr %13, ptr %14, align 8
  %15 = icmp eq ptr %13, null
  br i1 %15, label %16, label %20

16:                                               ; preds = %10
  %17 = load i64, ptr @H5E_RESOURCE_g, align 8
  %18 = load i64, ptr @H5E_NOSPACE_g, align 8
  %19 = tail call i32 (ptr, ptr, i32, i64, i64, ptr, ...) @H5E_printf_stack(ptr noundef nonnull @.str.1, ptr noundef nonnull @__func__.H5O__link_copy, i32 noundef 432, i64 noundef %17, i64 noundef %18, ptr noundef nonnull @.str.19) #7
  br label %50

20:                                               ; preds = %10
  %21 = load i32, ptr %0, align 8
  %22 = icmp eq i32 %21, 1
  br i1 %22, label %23, label %33

23:                                               ; preds = %20
  %24 = getelementptr inbounds i8, ptr %0, i64 32
  %25 = load ptr, ptr %24, align 8
  %26 = tail call noalias ptr @H5MM_xstrdup(ptr noundef %25) #7
  %27 = getelementptr inbounds i8, ptr %.032, i64 32
  store ptr %26, ptr %27, align 8
  %28 = icmp eq ptr %26, null
  br i1 %28, label %29, label %.thread

29:                                               ; preds = %23
  %30 = load i64, ptr @H5E_RESOURCE_g, align 8
  %31 = load i64, ptr @H5E_NOSPACE_g, align 8
  %32 = tail call i32 (ptr, ptr, i32, i64, i64, ptr, ...) @H5E_printf_stack(ptr noundef nonnull @.str.1, ptr noundef nonnull @__func__.H5O__link_copy, i32 noundef 437, i64 noundef %30, i64 noundef %31, ptr noundef nonnull @.str.20) #7
  br label %50

33:                                               ; preds = %20
  %34 = icmp sgt i32 %21, 63
  br i1 %34, label %35, label %.thread

35:                                               ; preds = %33
  %36 = getelementptr inbounds i8, ptr %0, i64 32
  %37 = getelementptr inbounds i8, ptr %0, i64 40
  %38 = load i64, ptr %37, align 8
  %.not40 = icmp eq i64 %38, 0
  br i1 %.not40, label %.thread, label %39

39:                                               ; preds = %35
  %40 = tail call noalias ptr @malloc(i64 noundef %38) #8
  %41 = getelementptr inbounds i8, ptr %.032, i64 32
  store ptr %40, ptr %41, align 8
  %42 = icmp eq ptr %40, null
  br i1 %42, label %43, label %47

43:                                               ; preds = %39
  %44 = load i64, ptr @H5E_RESOURCE_g, align 8
  %45 = load i64, ptr @H5E_NOSPACE_g, align 8
  %46 = tail call i32 (ptr, ptr, i32, i64, i64, ptr, ...) @H5E_printf_stack(ptr noundef nonnull @.str.1, ptr noundef nonnull @__func__.H5O__link_copy, i32 noundef 442, i64 noundef %44, i64 noundef %45, ptr noundef nonnull @.str.9) #7
  br label %50

47:                                               ; preds = %39
  %48 = load ptr, ptr %36, align 8
  %49 = load i64, ptr %37, align 8
  tail call void @llvm.memcpy.p0.p0.i64(ptr nonnull align 1 %40, ptr align 1 %48, i64 %49, i1 false)
  br label %.thread

50:                                               ; preds = %16, %29, %43
  %51 = load ptr, ptr %14, align 8
  %.not41 = icmp eq ptr %51, null
  br i1 %.not41, label %56, label %52

52:                                               ; preds = %50
  %53 = load ptr, ptr %11, align 8
  %.not42 = icmp eq ptr %51, %53
  br i1 %.not42, label %56, label %54

54:                                               ; preds = %52
  %55 = tail call ptr @H5MM_xfree(ptr noundef nonnull %51) #7
  store ptr %55, ptr %14, align 8
  br label %56

56:                                               ; preds = %54, %52, %50
  br i1 %.not, label %57, label %.thread

57:                                               ; preds = %56
  %58 = tail call ptr @H5FL_reg_free(ptr noundef nonnull @H5_H5O_link_t_reg_free_list, ptr noundef nonnull %.032) #7
  br label %.thread

.thread:                                          ; preds = %6, %23, %35, %47, %33, %57, %56
  %.046 = phi ptr [ null, %57 ], [ null, %56 ], [ %.032, %23 ], [ %.032, %35 ], [ %.032, %47 ], [ %.032, %33 ], [ null, %6 ]
  ret ptr %.046
}